target datalayout = "e-m:e-p270:32:32-p271:32:32-p272:64:64-i64:64-i128:128-f80:128-n8:16:32:64-S128"
target triple = "x86_64-pc-linux-gnu"

%struct.CPUClass = type { %struct.DeviceClass, ptr, ptr, ptr, ptr, ptr, ptr, ptr, ptr, ptr, ptr, ptr, ptr, ptr, ptr, ptr, ptr, ptr, ptr, ptr, ptr, ptr, i32, i32, i8 }
%struct.DeviceClass = type { %struct.ObjectClass, [1 x i64], ptr, ptr, ptr, i16, i8, i8, ptr, ptr, ptr, ptr, ptr, ptr }
%struct.ObjectClass = type { ptr, ptr, [4 x ptr], [4 x ptr], ptr, ptr }
%struct.ResettableClass = type { %struct.InterfaceClass, %struct.ResettablePhases, ptr, ptr }
%struct.InterfaceClass = type { %struct.ObjectClass, ptr }
%struct.ResettablePhases = type { ptr, ptr, ptr }

@.str.3 = private unnamed_addr constant [4 x i8] c"cpu\00", align 1
@.str.4 = private unnamed_addr constant [100 x i8] c"/home/dtcxzyw/WorkSpace/Projects/compilers/llvm-opt-benchmark/bench/qemu/qemu/include/hw/core/cpu.h\00", align 1
@.str.5 = private unnamed_addr constant [7 x i8] c"device\00", align 1
@.str.6 = private unnamed_addr constant [101 x i8] c"/home/dtcxzyw/WorkSpace/Projects/compilers/llvm-opt-benchmark/bench/qemu/qemu/include/hw/qdev-core.h\00", align 1
@__func__.CPU_CLASS = private unnamed_addr constant [10 x i8] c"CPU_CLASS\00", align 1
@__func__.DEVICE_CLASS = private unnamed_addr constant [13 x i8] c"DEVICE_CLASS\00", align 1
@.str.10 = private unnamed_addr constant [11 x i8] c"resettable\00", align 1
@.str.11 = private unnamed_addr constant [102 x i8] c"/home/dtcxzyw/WorkSpace/Projects/compilers/llvm-opt-benchmark/bench/qemu/qemu/include/hw/resettable.h\00", align 1
@__func__.RESETTABLE_CLASS = private unnamed_addr constant [17 x i8] c"RESETTABLE_CLASS\00", align 1

; Function Attrs: inlinehint nounwind sspstrong uwtable
define internal void @set_bit(i64 noundef %0, ptr noundef %1) #3 {
  %3 = alloca i64, align 8
  %4 = alloca ptr, align 8
  %5 = alloca i64, align 8
  %6 = alloca ptr, align 8
  store i64 %0, ptr %3, align 8
  store ptr %1, ptr %4, align 8
  call void @llvm.lifetime.start.p0(i64 8, ptr %5) #13
  %7 = load i64, ptr %3, align 8
  %8 = urem i64 %7, 64
  %9 = shl i64 1, %8
  store i64 %9, ptr %5, align 8
  call void @llvm.lifetime.start.p0(i64 8, ptr %6) #13
  %10 = load ptr, ptr %4, align 8
  %11 = load i64, ptr %3, align 8
  %12 = udiv i64 %11, 64
  %13 = getelementptr inbounds nuw i64, ptr %10, i64 %12
  store ptr %13, ptr %6, align 8
  %14 = load i64, ptr %5, align 8
  %15 = load ptr, ptr %6, align 8
  %16 = load i64, ptr %15, align 8
  %17 = or i64 %16, %14
  store i64 %17, ptr %15, align 8
  call void @llvm.lifetime.end.p0(i64 8, ptr %6) #13
  call void @llvm.lifetime.end.p0(i64 8, ptr %5) #13
  ret void
}

; Function Attrs: inlinehint nounwind sspstrong uwtable
define internal ptr @CPU_CLASS(ptr noundef %0) #3 {
  %2 = alloca ptr, align 8
  store ptr %0, ptr %2, align 8
  %3 = load ptr, ptr %2, align 8
  %4 = call ptr @object_class_dynamic_cast_assert(ptr noundef %3, ptr noundef @.str.3, ptr noundef @.str.4, i32 noundef 67, ptr noundef @__func__.CPU_CLASS)
  ret ptr %4
}

; Function Attrs: inlinehint nounwind sspstrong uwtable
define internal ptr @RESETTABLE_CLASS(ptr noundef %0) #3 {
  %2 = alloca ptr, align 8
  store ptr %0, ptr %2, align 8
  %3 = load ptr, ptr %2, align 8
  %4 = call ptr @object_class_dynamic_cast_assert(ptr noundef %3, ptr noundef @.str.10, ptr noundef @.str.11, i32 noundef 22, ptr noundef @__func__.RESETTABLE_CLASS)
  ret ptr %4
}

; Function Attrs: inlinehint nounwind sspstrong uwtable
define internal ptr @DEVICE_CLASS(ptr noundef %0) #3 {
  %2 = alloca ptr, align 8
  store ptr %0, ptr %2, align 8
  %3 = load ptr, ptr %2, align 8
  %4 = call ptr @object_class_dynamic_cast_assert(ptr noundef %3, ptr noundef @.str.5, ptr noundef @.str.6, i32 noundef 77, ptr noundef @__func__.DEVICE_CLASS)
  ret ptr %4
}

; Function Attrs: nounwind sspstrong uwtable
define internal void @cpu_common_class_init(ptr noundef %0, ptr noundef %1) #0 {
  %3 = alloca ptr, align 8
  %4 = alloca ptr, align 8
  %5 = alloca ptr, align 8
  %6 = alloca ptr, align 8
  %7 = alloca ptr, align 8
  store ptr %0, ptr %3, align 8
  store ptr %1, ptr %4, align 8
  call void @llvm.lifetime.start.p0(i64 8, ptr %5) #13
  %8 = load ptr, ptr %3, align 8
  %9 = call ptr @DEVICE_CLASS(ptr noundef %8)
  store ptr %9, ptr %5, align 8
  call void @llvm.lifetime.start.p0(i64 8, ptr %6) #13
  %10 = load ptr, ptr %3, align 8
  %11 = call ptr @RESETTABLE_CLASS(ptr noundef %10)
  store ptr %11, ptr %6, align 8
  call void @llvm.lifetime.start.p0(i64 8, ptr %7) #13
  %12 = load ptr, ptr %3, align 8
  %13 = call ptr @CPU_CLASS(ptr noundef %12)
  store ptr %13, ptr %7, align 8
  %14 = load ptr, ptr %7, align 8
  %15 = getelementptr inbounds nuw %struct.CPUClass, ptr %14, i32 0, i32 2
  store ptr @cpu_common_parse_features, ptr %15, align 8
  %16 = load ptr, ptr %7, align 8
  %17 = getelementptr inbounds nuw %struct.CPUClass, ptr %16, i32 0, i32 8
  store ptr @cpu_common_get_arch_id, ptr %17, align 8
  %18 = load ptr, ptr %7, align 8
  %19 = getelementptr inbounds nuw %struct.CPUClass, ptr %18, i32 0, i32 3
  store ptr @cpu_common_has_work, ptr %19, align 8
  %20 = load ptr, ptr %7, align 8
  %21 = getelementptr inbounds nuw %struct.CPUClass, ptr %20, i32 0, i32 11
  store ptr @cpu_common_gdb_read_register, ptr %21, align 8
  %22 = load ptr, ptr %7, align 8
  %23 = getelementptr inbounds nuw %struct.CPUClass, ptr %22, i32 0, i32 12
  store ptr @cpu_common_gdb_write_register, ptr %23, align 8
  %24 = load ptr, ptr %5, align 8
  %25 = getelementptr inbounds nuw %struct.DeviceClass, ptr %24, i32 0, i32 1
  %26 = getelementptr inbounds [1 x i64], ptr %25, i64 0, i64 0
  call void @set_bit(i64 noundef 8, ptr noundef %26)
  %27 = load ptr, ptr %5, align 8
  %28 = getelementptr inbounds nuw %struct.DeviceClass, ptr %27, i32 0, i32 9
  store ptr @cpu_common_realizefn, ptr %28, align 8
  %29 = load ptr, ptr %5, align 8
  %30 = getelementptr inbounds nuw %struct.DeviceClass, ptr %29, i32 0, i32 10
  store ptr @cpu_common_unrealizefn, ptr %30, align 8
  %31 = load ptr, ptr %6, align 8
  %32 = getelementptr inbounds nuw %struct.ResettableClass, ptr %31, i32 0, i32 1
  %33 = getelementptr inbounds nuw %struct.ResettablePhases, ptr %32, i32 0, i32 1
  store ptr @cpu_common_reset_hold, ptr %33, align 8
  %34 = load ptr, ptr %5, align 8
  call void @cpu_class_init_props(ptr noundef %34)
  %35 = load ptr, ptr %5, align 8
  %36 = getelementptr inbounds nuw %struct.DeviceClass, ptr %35, i32 0, i32 6
  store i8 0, ptr %36, align 2
  call void @llvm.lifetime.end.p0(i64 8, ptr %7) #13
  call void @llvm.lifetime.end.p0(i64 8, ptr %6) #13
  call void @llvm.lifetime.end.p0(i64 8, ptr %5) #13
  ret void
}