; Function Attrs: nounwind sspstrong uwtable
define internal void @cpu_common_class_init(ptr noundef %0, ptr readnone captures(none) %1) #0 {
  %3 = tail call ptr @object_class_dynamic_cast_assert(ptr noundef %0, ptr noundef nonnull @.str.5, ptr noundef nonnull @.str.6, i32 noundef 77, ptr noundef nonnull @__func__.DEVICE_CLASS) #12
  %4 = tail call ptr @object_class_dynamic_cast_assert(ptr noundef %0, ptr noundef nonnull @.str.10, ptr noundef nonnull @.str.11, i32 noundef 22, ptr noundef nonnull @__func__.RESETTABLE_CLASS) #12
  %5 = tail call ptr @object_class_dynamic_cast_assert(ptr noundef %0, ptr noundef nonnull @.str.3, ptr noundef nonnull @.str.4, i32 noundef 67, ptr noundef nonnull @__func__.CPU_CLASS) #12
  %6 = getelementptr inbounds nuw i8, ptr %5, i64 192
  store ptr @cpu_common_parse_features, ptr %6, align 8
  %7 = getelementptr inbounds nuw i8, ptr %5, i64 240
  store ptr @cpu_common_get_arch_id, ptr %7, align 8
  %8 = getelementptr inbounds nuw i8, ptr %5, i64 200
  store ptr @cpu_common_has_work, ptr %8, align 8
  %9 = getelementptr inbounds nuw i8, ptr %5, i64 264
  store ptr @cpu_common_gdb_read_register, ptr %9, align 8
  %10 = getelementptr inbounds nuw i8, ptr %5, i64 272
  store ptr @cpu_common_gdb_write_register, ptr %10, align 8
  %11 = getelementptr inbounds nuw i8, ptr %3, i64 96
  %12 = load i64, ptr %11, align 8
  %13 = or i64 %12, 256
  store i64 %13, ptr %11, align 8
  %14 = getelementptr inbounds nuw i8, ptr %3, i64 144
  store ptr @cpu_common_realizefn, ptr %14, align 8
  %15 = getelementptr inbounds nuw i8, ptr %3, i64 152
  store ptr @cpu_common_unrealizefn, ptr %15, align 8
  %16 = getelementptr inbounds nuw i8, ptr %4, i64 112
  store ptr @cpu_common_reset_hold, ptr %16, align 8
  tail call void @cpu_class_init_props(ptr noundef %3) #12
  %17 = getelementptr inbounds nuw i8, ptr %3, i64 130
  store i8 0, ptr %17, align 2
  ret void
}